target datalayout = "e-m:e-p270:32:32-p271:32:32-p272:64:64-i64:64-i128:128-f80:128-n8:16:32:64-S128"
target triple = "x86_64-unknown-linux-gnu"

%"class.icu_75::UObject" = type { ptr }
%"class.icu_75::CollationBuilder" = type { %"class.icu_75::CollationRuleParser::Sink", ptr, ptr, ptr, ptr, ptr, %"class.icu_75::CollationRootElements", i32, ptr, i8, i8, [6 x i8], %"class.icu_75::UnicodeSet", ptr, [31 x i64], i32, %"class.icu_75::UVector32", %"class.icu_75::UVector64" }
%"class.icu_75::CollationRuleParser::Sink" = type { %"class.icu_75::UObject" }
%"class.icu_75::CollationRootElements" = type <{ ptr, i32, [4 x i8] }>
%"class.icu_75::UnicodeSet" = type <{ %"class.icu_75::UnicodeFilter", ptr, i32, i32, i8, [7 x i8], ptr, ptr, i32, [4 x i8], ptr, i32, [4 x i8], ptr, ptr, [25 x i32], [4 x i8] }>
%"class.icu_75::UnicodeFilter" = type { %"class.icu_75::UnicodeFunctor", %"class.icu_75::UnicodeMatcher" }
%"class.icu_75::UnicodeFunctor" = type { %"class.icu_75::UObject" }
%"class.icu_75::UnicodeMatcher" = type { ptr }
%"class.icu_75::UVector32" = type { %"class.icu_75::UObject", i32, i32, i32, ptr }
%"class.icu_75::UVector64" = type { %"class.icu_75::UObject", i32, i32, i32, ptr }

; Function Attrs: mustprogress nounwind uwtable
define linkonce_odr noundef i32 @_ZN6icu_7516CollationBuilder16weight32FromNodeEl(i64 noundef %node) #3 comdat align 2 {
entry:
  %node.addr = alloca i64, align 8
  store i64 %node, ptr %node.addr, align 8
  %0 = load i64, ptr %node.addr, align 8
  %shr = ashr i64 %0, 32
  %conv = trunc i64 %shr to i32
  ret i32 %conv
}

; Function Attrs: mustprogress nounwind uwtable
define linkonce_odr noundef signext i8 @_ZN6icu_7516CollationBuilder14isTailoredNodeEl(i64 noundef %node) #3 comdat align 2 {
entry:
  %node.addr = alloca i64, align 8
  store i64 %node, ptr %node.addr, align 8
  %0 = load i64, ptr %node.addr, align 8
  %and = and i64 %0, 8
  %cmp = icmp ne i64 %and, 0
  %conv = zext i1 %cmp to i8
  ret i8 %conv
}

; Function Attrs: mustprogress nounwind uwtable
define linkonce_odr noundef i64 @_ZNK6icu_759UVector6410elementAtiEi(ptr noundef nonnull align 8 dereferenceable(32) %this, i32 noundef %index) #3 comdat align 2 {
entry:
  %this.addr = alloca ptr, align 8
  %index.addr = alloca i32, align 4
  store ptr %this, ptr %this.addr, align 8
  store i32 %index, ptr %index.addr, align 4
  %this1 = load ptr, ptr %this.addr, align 8
  %0 = load i32, ptr %index.addr, align 4
  %cmp = icmp sle i32 0, %0
  br i1 %cmp, label %land.lhs.true, label %cond.false

land.lhs.true:                                    ; preds = %entry
  %1 = load i32, ptr %index.addr, align 4
  %count = getelementptr inbounds %"class.icu_75::UVector64", ptr %this1, i32 0, i32 1
  %2 = load i32, ptr %count, align 8
  %cmp2 = icmp slt i32 %1, %2
  br i1 %cmp2, label %cond.true, label %cond.false

cond.true:                                        ; preds = %land.lhs.true
  %elements = getelementptr inbounds %"class.icu_75::UVector64", ptr %this1, i32 0, i32 4
  %3 = load ptr, ptr %elements, align 8
  %4 = load i32, ptr %index.addr, align 4
  %idxprom = sext i32 %4 to i64
  %arrayidx = getelementptr inbounds i64, ptr %3, i64 %idxprom
  %5 = load i64, ptr %arrayidx, align 8
  br label %cond.end

cond.false:                                       ; preds = %land.lhs.true, %entry
  br label %cond.end

cond.end:                                         ; preds = %cond.false, %cond.true
  %cond = phi i64 [ %5, %cond.true ], [ 0, %cond.false ]
  ret i64 %cond
}

; Function Attrs: mustprogress nounwind uwtable
define linkonce_odr noundef i32 @_ZN6icu_7516CollationBuilder21previousIndexFromNodeEl(i64 noundef %node) #3 comdat align 2 {
entry:
  %node.addr = alloca i64, align 8
  store i64 %node, ptr %node.addr, align 8
  %0 = load i64, ptr %node.addr, align 8
  %shr = ashr i64 %0, 28
  %conv = trunc i64 %shr to i32
  %and = and i32 %conv, 1048575
  ret i32 %and
}

; Function Attrs: mustprogress nounwind uwtable
define linkonce_odr noundef i32 @_ZN6icu_7516CollationBuilder16weight16FromNodeEl(i64 noundef %node) #3 comdat align 2 {
entry:
  %node.addr = alloca i64, align 8
  store i64 %node, ptr %node.addr, align 8
  %0 = load i64, ptr %node.addr, align 8
  %shr = ashr i64 %0, 48
  %conv = trunc i64 %shr to i32
  %and = and i32 %conv, 65535
  ret i32 %and
}

; Function Attrs: mustprogress nounwind uwtable
define linkonce_odr noundef i32 @_ZN6icu_7516CollationBuilder16strengthFromNodeEl(i64 noundef %node) #3 comdat align 2 {
entry:
  %node.addr = alloca i64, align 8
  store i64 %node, ptr %node.addr, align 8
  %0 = load i64, ptr %node.addr, align 8
  %conv = trunc i64 %0 to i32
  %and = and i32 %conv, 3
  ret i32 %and
}

; Function Attrs: mustprogress uwtable
define noundef i32 @_ZN6icu_7516CollationBuilder17getWeight16BeforeEili(ptr noundef nonnull align 8 dereferenceable(616) %this, i32 noundef %index, i64 noundef %node, i32 noundef %level) #0 align 2 {
entry:
  %retval = alloca i32, align 4
  %this.addr = alloca ptr, align 8
  %index.addr = alloca i32, align 4
  %node.addr = alloca i64, align 8
  %level.addr = alloca i32, align 4
  %t = alloca i32, align 4
  %s = alloca i32, align 4
  %p = alloca i32, align 4
  %weight16 = alloca i32, align 4
  store ptr %this, ptr %this.addr, align 8
  store i32 %index, ptr %index.addr, align 4
  store i64 %node, ptr %node.addr, align 8
  store i32 %level, ptr %level.addr, align 4
  %this1 = load ptr, ptr %this.addr, align 8
  %0 = load i64, ptr %node.addr, align 8
  %call = call noundef i32 @_ZN6icu_7516CollationBuilder16strengthFromNodeEl(i64 noundef %0)
  %cmp = icmp eq i32 %call, 2
  br i1 %cmp, label %if.then, label %if.else

if.then:                                          ; preds = %entry
  %1 = load i64, ptr %node.addr, align 8
  %call2 = call noundef i32 @_ZN6icu_7516CollationBuilder16weight16FromNodeEl(i64 noundef %1)
  store i32 %call2, ptr %t, align 4
  br label %if.end

if.else:                                          ; preds = %entry
  store i32 1280, ptr %t, align 4
  br label %if.end

if.end:                                           ; preds = %if.else, %if.then
  br label %while.cond

while.cond:                                       ; preds = %while.body, %if.end
  %2 = load i64, ptr %node.addr, align 8
  %call3 = call noundef i32 @_ZN6icu_7516CollationBuilder16strengthFromNodeEl(i64 noundef %2)
  %cmp4 = icmp sgt i32 %call3, 1
  br i1 %cmp4, label %while.body, label %while.end

while.body:                                       ; preds = %while.cond
  %3 = load i64, ptr %node.addr, align 8
  %call5 = call noundef i32 @_ZN6icu_7516CollationBuilder21previousIndexFromNodeEl(i64 noundef %3)
  store i32 %call5, ptr %index.addr, align 4
  %nodes = getelementptr inbounds %"class.icu_75::CollationBuilder", ptr %this1, i32 0, i32 17
  %4 = load i32, ptr %index.addr, align 4
  %call6 = call noundef i64 @_ZNK6icu_759UVector6410elementAtiEi(ptr noundef nonnull align 8 dereferenceable(32) %nodes, i32 noundef %4)
  store i64 %call6, ptr %node.addr, align 8
  br label %while.cond, !llvm.loop !15

while.end:                                        ; preds = %while.cond
  %5 = load i64, ptr %node.addr, align 8
  %call7 = call noundef signext i8 @_ZN6icu_7516CollationBuilder14isTailoredNodeEl(i64 noundef %5)
  %tobool = icmp ne i8 %call7, 0
  br i1 %tobool, label %if.then8, label %if.end9

if.then8:                                         ; preds = %while.end
  store i32 256, ptr %retval, align 4
  br label %return

if.end9:                                          ; preds = %while.end
  %6 = load i64, ptr %node.addr, align 8
  %call10 = call noundef i32 @_ZN6icu_7516CollationBuilder16strengthFromNodeEl(i64 noundef %6)
  %cmp11 = icmp eq i32 %call10, 1
  br i1 %cmp11, label %if.then12, label %if.else14

if.then12:                                        ; preds = %if.end9
  %7 = load i64, ptr %node.addr, align 8
  %call13 = call noundef i32 @_ZN6icu_7516CollationBuilder16weight16FromNodeEl(i64 noundef %7)
  store i32 %call13, ptr %s, align 4
  br label %if.end15

if.else14:                                        ; preds = %if.end9
  store i32 1280, ptr %s, align 4
  br label %if.end15

if.end15:                                         ; preds = %if.else14, %if.then12
  br label %while.cond16

while.cond16:                                     ; preds = %while.body19, %if.end15
  %8 = load i64, ptr %node.addr, align 8
  %call17 = call noundef i32 @_ZN6icu_7516CollationBuilder16strengthFromNodeEl(i64 noundef %8)
  %cmp18 = icmp sgt i32 %call17, 0
  br i1 %cmp18, label %while.body19, label %while.end23

while.body19:                                     ; preds = %while.cond16
  %9 = load i64, ptr %node.addr, align 8
  %call20 = call noundef i32 @_ZN6icu_7516CollationBuilder21previousIndexFromNodeEl(i64 noundef %9)
  store i32 %call20, ptr %index.addr, align 4
  %nodes21 = getelementptr inbounds %"class.icu_75::CollationBuilder", ptr %this1, i32 0, i32 17
  %10 = load i32, ptr %index.addr, align 4
  %call22 = call noundef i64 @_ZNK6icu_759UVector6410elementAtiEi(ptr noundef nonnull align 8 dereferenceable(32) %nodes21, i32 noundef %10)
  store i64 %call22, ptr %node.addr, align 8
  br label %while.cond16, !llvm.loop !16

while.end23:                                      ; preds = %while.cond16
  %11 = load i64, ptr %node.addr, align 8
  %call24 = call noundef signext i8 @_ZN6icu_7516CollationBuilder14isTailoredNodeEl(i64 noundef %11)
  %tobool25 = icmp ne i8 %call24, 0
  br i1 %tobool25, label %if.then26, label %if.end27

if.then26:                                        ; preds = %while.end23
  store i32 256, ptr %retval, align 4
  br label %return

if.end27:                                         ; preds = %while.end23
  %12 = load i64, ptr %node.addr, align 8
  %call28 = call noundef i32 @_ZN6icu_7516CollationBuilder16weight32FromNodeEl(i64 noundef %12)
  store i32 %call28, ptr %p, align 4
  %13 = load i32, ptr %level.addr, align 4
  %cmp29 = icmp eq i32 %13, 1
  br i1 %cmp29, label %if.then30, label %if.else32

if.then30:                                        ; preds = %if.end27
  %rootElements = getelementptr inbounds %"class.icu_75::CollationBuilder", ptr %this1, i32 0, i32 6
  %14 = load i32, ptr %p, align 4
  %15 = load i32, ptr %s, align 4
  %call31 = call noundef i32 @_ZNK6icu_7521CollationRootElements18getSecondaryBeforeEjj(ptr noundef nonnull align 8 dereferenceable(12) %rootElements, i32 noundef %14, i32 noundef %15)
  store i32 %call31, ptr %weight16, align 4
  br label %if.end35

if.else32:                                        ; preds = %if.end27
  %rootElements33 = getelementptr inbounds %"class.icu_75::CollationBuilder", ptr %this1, i32 0, i32 6
  %16 = load i32, ptr %p, align 4
  %17 = load i32, ptr %s, align 4
  %18 = load i32, ptr %t, align 4
  %call34 = call noundef i32 @_ZNK6icu_7521CollationRootElements17getTertiaryBeforeEjjj(ptr noundef nonnull align 8 dereferenceable(12) %rootElements33, i32 noundef %16, i32 noundef %17, i32 noundef %18)
  store i32 %call34, ptr %weight16, align 4
  br label %if.end35

if.end35:                                         ; preds = %if.else32, %if.then30
  %19 = load i32, ptr %weight16, align 4
  store i32 %19, ptr %retval, align 4
  br label %return

return:                                           ; preds = %if.end35, %if.then26, %if.then8
  %20 = load i32, ptr %retval, align 4
  ret i32 %20
}