; Function Attrs: mustprogress uwtable
define noundef i32 @_ZN6icu_7516CollationBuilder17getWeight16BeforeEili(ptr noundef nonnull align 8 dereferenceable(616) %this, i32 %index, i64 noundef %node, i32 noundef %level) local_unnamed_addr #0 align 2 {
entry:
  %and.i41 = and i64 %node, 3
  %cmp = icmp eq i64 %and.i41, 2
  %shr.i = lshr i64 %node, 48
  %conv.i14 = trunc i64 %shr.i to i32
  %t.0 = select i1 %cmp, i32 %conv.i14, i32 1280
  %conv.i1543 = trunc i64 %node to i32
  %and.i1644 = and i32 %conv.i1543, 3
  %cmp445 = icmp ugt i32 %and.i1644, 1
  br i1 %cmp445, label %while.body.lr.ph, label %while.end

while.body.lr.ph:                                 ; preds = %entry
  %count.i = getelementptr inbounds i8, ptr %this, i64 592
  %0 = load i32, ptr %count.i, align 8
  %elements.i = getelementptr inbounds i8, ptr %this, i64 608
  %1 = load ptr, ptr %elements.i, align 8
  br label %while.body

while.body:                                       ; preds = %while.body.lr.ph, %_ZNK6icu_759UVector6410elementAtiEi.exit
  %node.addr.046 = phi i64 [ %node, %while.body.lr.ph ], [ %.fr, %_ZNK6icu_759UVector6410elementAtiEi.exit ]
  %shr.i17 = lshr i64 %node.addr.046, 28
  %conv.i18 = trunc i64 %shr.i17 to i32
  %and.i19 = and i32 %conv.i18, 1048575
  %cmp2.i = icmp sgt i32 %0, %and.i19
  br i1 %cmp2.i, label %_ZNK6icu_759UVector6410elementAtiEi.exit, label %if.end27

_ZNK6icu_759UVector6410elementAtiEi.exit:         ; preds = %while.body
  %idxprom.i = and i64 %shr.i17, 1048575
  %arrayidx.i = getelementptr inbounds i64, ptr %1, i64 %idxprom.i
  %2 = load i64, ptr %arrayidx.i, align 8
  %.fr = freeze i64 %2
  %conv.i15 = trunc i64 %.fr to i32
  %and.i16 = and i32 %conv.i15, 3
  %cmp4 = icmp ugt i32 %and.i16, 1
  br i1 %cmp4, label %while.body, label %while.end, !llvm.loop !22

while.end:                                        ; preds = %_ZNK6icu_759UVector6410elementAtiEi.exit, %entry
  %node.addr.0.lcssa = phi i64 [ %node, %entry ], [ %.fr, %_ZNK6icu_759UVector6410elementAtiEi.exit ]
  %and.i16.lcssa = phi i32 [ %and.i1644, %entry ], [ %and.i16, %_ZNK6icu_759UVector6410elementAtiEi.exit ]
  %3 = and i64 %node.addr.0.lcssa, 8
  %tobool.not = icmp eq i64 %3, 0
  br i1 %tobool.not, label %if.end9, label %return

if.end9:                                          ; preds = %while.end
  %cmp11.not = icmp eq i32 %and.i16.lcssa, 0
  %shr.i23 = lshr i64 %node.addr.0.lcssa, 48
  %conv.i24 = trunc i64 %shr.i23 to i32
  %spec.select = select i1 %cmp11.not, i32 1280, i32 %conv.i24
  %and.i264248 = and i64 %node.addr.0.lcssa, 3
  %cmp18.not49 = icmp eq i64 %and.i264248, 0
  br i1 %cmp18.not49, label %while.end23, label %while.body19.lr.ph

while.body19.lr.ph:                               ; preds = %if.end9
  %count.i30 = getelementptr inbounds i8, ptr %this, i64 592
  %4 = load i32, ptr %count.i30, align 8
  %elements.i34 = getelementptr inbounds i8, ptr %this, i64 608
  %5 = load ptr, ptr %elements.i34, align 8
  br label %while.body19

while.body19:                                     ; preds = %while.body19.lr.ph, %_ZNK6icu_759UVector6410elementAtiEi.exit37
  %node.addr.150 = phi i64 [ %node.addr.0.lcssa, %while.body19.lr.ph ], [ %6, %_ZNK6icu_759UVector6410elementAtiEi.exit37 ]
  %shr.i27 = lshr i64 %node.addr.150, 28
  %conv.i28 = trunc i64 %shr.i27 to i32
  %and.i29 = and i32 %conv.i28, 1048575
  %cmp2.i31 = icmp sgt i32 %4, %and.i29
  br i1 %cmp2.i31, label %_ZNK6icu_759UVector6410elementAtiEi.exit37, label %if.end27

_ZNK6icu_759UVector6410elementAtiEi.exit37:       ; preds = %while.body19
  %idxprom.i35 = and i64 %shr.i27, 1048575
  %arrayidx.i36 = getelementptr inbounds i64, ptr %5, i64 %idxprom.i35
  %6 = load i64, ptr %arrayidx.i36, align 8
  %and.i2642 = and i64 %6, 3
  %cmp18.not = icmp eq i64 %and.i2642, 0
  br i1 %cmp18.not, label %while.end23, label %while.body19, !llvm.loop !23

while.end23:                                      ; preds = %_ZNK6icu_759UVector6410elementAtiEi.exit37, %if.end9
  %node.addr.1.lcssa = phi i64 [ %node.addr.0.lcssa, %if.end9 ], [ %6, %_ZNK6icu_759UVector6410elementAtiEi.exit37 ]
  %7 = and i64 %node.addr.1.lcssa, 8
  %tobool25.not = icmp eq i64 %7, 0
  br i1 %tobool25.not, label %if.end27, label %return

if.end27:                                         ; preds = %while.body, %while.body19, %while.end23
  %node.addr.1.lcssa81 = phi i64 [ %node.addr.1.lcssa, %while.end23 ], [ 0, %while.body19 ], [ 0, %while.body ]
  %8 = phi i32 [ %spec.select, %while.end23 ], [ %spec.select, %while.body19 ], [ 1280, %while.body ]
  %shr.i39 = lshr i64 %node.addr.1.lcssa81, 32
  %conv.i40 = trunc i64 %shr.i39 to i32
  %cmp29 = icmp eq i32 %level, 1
  %rootElements = getelementptr inbounds i8, ptr %this, i64 48
  br i1 %cmp29, label %if.then30, label %if.else32

if.then30:                                        ; preds = %if.end27
  %call31 = tail call noundef i32 @_ZNK6icu_7521CollationRootElements18getSecondaryBeforeEjj(ptr noundef nonnull align 8 dereferenceable(12) %rootElements, i32 noundef %conv.i40, i32 noundef %8)
  br label %return

if.else32:                                        ; preds = %if.end27
  %call34 = tail call noundef i32 @_ZNK6icu_7521CollationRootElements17getTertiaryBeforeEjjj(ptr noundef nonnull align 8 dereferenceable(12) %rootElements, i32 noundef %conv.i40, i32 noundef %8, i32 noundef %t.0)
  br label %return

return:                                           ; preds = %if.then30, %if.else32, %while.end23, %while.end
  %retval.0 = phi i32 [ 256, %while.end ], [ 256, %while.end23 ], [ %call31, %if.then30 ], [ %call34, %if.else32 ]
  ret i32 %retval.0
}